; Function Attrs: mustprogress nounwind uwtable
define dso_local i64 @_ZNK5clang4ento14ParamVarRegion12getValueTypeEv(ptr noundef nonnull align 8 dereferenceable(68) %0) unnamed_addr #3 align 2 {
  %2 = load ptr, ptr %0, align 8
  %3 = getelementptr inbounds i8, ptr %2, i64 112
  %4 = load ptr, ptr %3, align 8
  %5 = tail call noundef ptr %4(ptr noundef nonnull align 8 dereferenceable(68) %0) #20
  %6 = getelementptr inbounds nuw i8, ptr %5, i64 48
  %.sroa.0.0.copyload.i = load i64, ptr %6, align 8
  ret i64 %.sroa.0.0.copyload.i
}